(dp1
S'cutoff'
p2
cnumpy.core.multiarray
scalar
p3
(cnumpy
dtype
p4
(S'f8'
I0
I1
tRp5
(I3
S'<'
NNNI-1
I-1
I0
tbS'\x00\x00\x00\x00\x00\x00\xf0?'
tRp6
sS'distribution'
p7
ccopy_reg
_reconstructor
p8
(cnltk.probability
FreqDist
p9
c__builtin__
dict
p10
(dp11
V
I100
sV..!!
p12
I6
sV-@
p13
I7
sV@...
p14
I8
sV[]-
p15
I2
sV@..#
p16
I1
sV,!!
p17
I1
sV.....
p18
I42
sV(://./):
p19
I1
sV[]?
p20
I1
sV....'
p21
I3
sV[]:
p22
I5
sV....#
p23
I9
sV...."
p24
I2
sV:...
p25
I17
sV#?--
p26
I1
sV&;;#;...
p27
I1
sV======
p28
I2
sV^
I16
sV#__
p29
I16
sV@
I100
sV=@.
p30
I1
sV+&;
p31
I1
sV#:(
p32
I2
sV#:)
p33
I2
sV***
p34
I16
sV==&;
p35
I1
sV-/-'
p36
I1
sV..!~
p37
I1
sV-%
p38
I2
sV!!!!!!!!??????
p39
I1
sV(`)
p40
I1
sV-!
p41
I22
sV-#
p42
I3
sV-"
p43
I4
sV--
p44
I78
sV-,
p45
I30
sV-/
p46
I4
sV-.
p47
I55
sV-)
p48
I9
sV-(
p49
I2
sV-?
p50
I5
sV&;&;&;&;&;&;&;&;&;&;&;
p51
I1
sV;&;
p52
I1
sV-:
p53
I18
sV@@
p54
I5
sV:;
p55
I2
sV-----:
p56
I1
sV@_
p57
I100
sV+
I94
sV:://./
p58
I1
sV:[]
p59
I2
sV,_
p60
I1
sV-----&;
p61
I7
sV&;#;:
p62
I2
sV!!!!!!!!!!!!!!!!!!!!!!!!
p63
I1
sV@________:
p64
I1
sV|...
p65
I2
sV&;
p66
I100
sV====
p67
I1
sV@"
p68
I10
sV@#
p69
I8
sV@!
p70
I15
sV(':
p71
I1
sV@'
p72
I7
sV@+
p73
I4
sV@)
p74
I9
sV@.
p75
I54
sV@/
p76
I1
sV@,
p77
I10
sV@-
p78
I2
sV!=)
p79
I1
sV........................
p80
I1
sV!....
p81
I1
sV@:
p82
I100
sV@?
p83
I1
sV..........
p84
I1
sV$,...
p85
I1
sV():
p86
I5
sV)...
p87
I1
sV(),
p88
I3
sV#&;#;
p89
I38
sV().
p90
I11
sV/$/$.
p91
I1
sV:*)
p92
I1
sV-!!!'
p93
I1
sV#_______
p94
I3
sV"!!
p95
I1
sV@__@#
p96
I1
sV!.....
p97
I1
sV@#.
p98
I1
sV@##
p99
I1
sV"_"
p100
I2
sV"_:
p101
I2
sV,,,.
p102
I1
sV&;==&;
p103
I1
sV?--
p104
I1
sV&;;...
p105
I1
sV'/'
p106
I2
sV&;@'
p107
I1
sV@___".
p108
I1
sV#@??
p109
I1
sV"&;
p110
I1
sV-&;://./
p111
I24
sV#----
p112
I2
sV+-
p113
I2
sV.#.
p114
I1
sV!
I100
sV!!'
p115
I1
sV!!!
p116
I99
sV.(@
p117
I1
sV!!#
p118
I2
sV!!"
p119
I3
sV!!,
p120
I1
sV!!.
p121
I1
sV!!(
p122
I1
sV---&;---
p123
I1
sV!!?
p124
I1
sV!!:
p125
I2
sV&;#;&;#;
p126
I1
sV@@@
p127
I1
sV!!@
p128
I1
sV.()
p129
I5
sV..!!!!!
p130
I1
sV&;$!
p131
I1
sV@@_
p132
I1
sV.(:
p133
I1
sV---&;
p134
I10
sV??#
p135
I1
sV.....,
p136
I2
sV......
p137
I47
sV(****...
p138
I1
sV__
p139
I29
sV-#-
p140
I1
sV,,,,,,,
p141
I1
sV&;#;
p142
I11
sV!&;&;--
p143
I1
sV(_)
p144
I1
sV[://./]"
p145
I1
sV|:@
p146
I2
sV,
I100
sV-,-
p147
I1
sV."&;&;&;&;
p148
I1
sV'.')--)
p149
I1
sV????????????????
p150
I1
sV`
I15
sV-'
p151
I1
sV#):
p152
I2
sV::::....
p153
I1
sV...:-)
p154
I5
sV!!!!!!!!??
p155
I1
sV_:
p156
I9
sV://.
p157
I46
sV_/
p158
I18
sV_.
p159
I6
sV_-
p160
I6
sV.******
p161
I2
sV??...
p162
I1
sV!!!!;
p163
I1
sV"%
p164
I2
sV&;.&;
p165
I5
sV--."
p166
I2
sV!!!!.
p167
I1
sV!!!!!
p168
I37
sV!!!!#
p169
I1
sV#=$
p170
I1
sV/@!
p171
I1
sV#@_
p172
I1
sV;)"
p173
I1
sV("-&;.
p174
I1
sV****
p175
I3
sV~!!
p176
I1
sV***?
p177
I1
sV$$!!!
p178
I1
sV".
p179
I10
sV&;&;%
p180
I1
sV#@,
p181
I2
sV#./?
p182
I1
sV#@.
p183
I5
sV+#
p184
I1
sV"???
p185
I1
sV++
p186
I4
sV+)
p187
I1
sV+.
p188
I4
sV-_____-
p189
I1
sV+,
p190
I1
sV!!!!!!!!????
p191
I1
sV;;)
p192
I2
sV#^^
p193
I1
sV+:
p194
I1
sV+=
p195
I2
sV:""
p196
I1
sV(.`)
p197
I1
sV#......
p198
I1
sV./.
p199
I4
sV:")
p200
I1
sV#!!!!!
p201
I1
sV"
I99
sV!...
p202
I11
sV:):):)
p203
I5
sV=&;://./
p204
I1
sV$.
p205
I49
sV_____.
p206
I1
sV$,
p207
I11
sV$)
p208
I1
sV$$
p209
I2
sV"!!!"
p210
I1
sV$=
p211
I1
sV$:
p212
I6
sV--#
p213
I1
sV''..
p214
I1
sV/)
p215
I4
sV.!!!!
p216
I1
sV"..
p217
I3
sV"."
p218
I5
sV?"#
p219
I1
sV-.....
p220
I1
sV:(((
p221
I4
sV~~
p222
I14
sV--&;://./
p223
I34
sV/!
p224
I1
sV'!!
p225
I2
sV-!...
p226
I1
sV!!!!!!!.......
p227
I1
sV"'"
p228
I1
sV!):
p229
I2
sV-
I100
sV'."
p230
I5
sV!).
p231
I1
sV'.'
p232
I1
sV'..
p233
I1
sV'.-
p234
I1
sV"...
p235
I3
sV"..,
p236
I1
sV://./"...
p237
I1
sV#,,
p238
I2
sV@#$@#$@#$@#$@#$
p239
I1
sV:::-,
p240
I1
sV~.
p241
I1
sV.#.#
p242
I1
sV~!
p243
I1
sV....!!!!!
p244
I1
sV?!!!!
p245
I2
sV....&;
p246
I1
sV?????"
p247
I1
sV#*!!!!*
p248
I1
sV!"@:
p249
I1
sV="=
p250
I1
sV.),
p251
I2
sV#(!)
p252
I1
sV=""
p253
I1
sV!!!"@:
p254
I1
sV//.
p255
I3
sV!;)
p256
I1
sV$$$$$
p257
I4
sV???!!
p258
I1
sV^&;@#
p259
I1
sV~://./
p260
I1
sV..#.
p261
I2
sV:-),
p262
I1
sV..##
p263
I1
sV)::'()
p264
I1
sV:-))
p265
I1
sV(+):
p266
I5
sV://...
p267
I1
sV://../
p268
I1
sV:-)?
p269
I1
sV#"@:
p270
I1
sV#
I100
sV@....
p271
I2
sV..:)
p272
I1
sV#:'(
p273
I1
sV()..
p274
I1
sV;("@:
p275
I1
sV"...........
p276
I1
sV!!@_:
p277
I1
sV:-)@
p278
I1
sV~"@_:
p279
I1
sV]:
p280
I3
sV*#%
p281
I1
sV....()~
p282
I1
sV--&;
p283
I21
sV],
p284
I1
sV(...)!*
p285
I1
sV):
p286
I17
sV!!!!!!!
p287
I12
sV#',
p288
I1
sV'...:
p289
I1
sV#'!
p290
I1
sV))
p291
I9
sV)(
p292
I1
sV._.
p293
I5
sV#':
p294
I2
sV),
p295
I10
sV://./||
p296
I8
sV).
p297
I15
sV)!
p298
I3
sV)"
p299
I2
sV)'
p300
I2
sV!)(.)():
p301
I1
sV*()
p302
I4
sV-//-
p303
I1
sV....@
p304
I1
sV----&;
p305
I1
sV//......
p306
I1
sV$%&;/.
p307
I1
sV:")&;
p308
I1
sV#...@__
p309
I1
sV@:,
p310
I1
sV&;&;&;://./
p311
I3
sV'.&;
p312
I1
sV:,-
p313
I2
sV!!??
p314
I1
sV.&;&;&;&;&;&;&;
p315
I2
sV:)))))
p316
I1
sV???????
p317
I32
sV::-)
p318
I1
sV#,)
p319
I2
sV)]
p320
I1
sV_._._.
p321
I1
sV?....
p322
I1
sV)@_
p323
I2
sV$,.!
p324
I3
sV!!!!!!!!!!!!
p325
I2
sV#..
p326
I19
sV@@@:
p327
I1
sV&;&;&;&;
p328
I10
sV(;
p329
I11
sV&;&;&;&;&;&;&;&;&;&;
p330
I1
sV!!!!!!!!???
p331
I1
sV___"
p332
I1
sV(+)
p333
I11
sV://./
p334
I100
sV://..
p335
I1
sV.............!!!
p336
I1
sV!:)
p337
I1
sV!(@
p338
I1
sV(,...
p339
I1
sV"@
p340
I12
sV,,...
p341
I2
sV:("
p342
I1
sV:((
p343
I3
sV('.'
p344
I1
sV"_
p345
I1
sV:(.
p346
I1
sV&;&;[:
p347
I5
sV"'
p348
I29
sV"!
p349
I3
sV""
p350
I63
sV"#
p351
I5
sV",
p352
I6
sV"-
p353
I7
sV://...:/.
p354
I23
sV"(
p355
I9
sV")
p356
I1
sV#,#,#,#:
p357
I1
sV######
p358
I1
sV!!!...
p359
I1
sV!(:
p360
I4
sV,...
p361
I92
sV"?
p362
I2
sV":
p363
I7
sV!!!!!!!!
p364
I8
sV!!!!!!!"
p365
I1
sV@,-
p366
I1
sV:')"
p367
I1
sV;)"@_:
p368
I1
sV$....:
p369
I1
sV//!
p370
I23
sV//"
p371
I1
sV||
p372
I13
sV",#.."
p373
I1
sV???#
p374
I1
sV???"
p375
I1
sV';'
p376
I1
sV:-(,'
p377
I1
sV????
p378
I20
sV//:
p379
I2
sV:#,
p380
I20
sV-!!!!!!!
p381
I1
sV$
I68
sV~^^
p382
I1
sV..???
p383
I1
sV-!!!
p384
I1
sV&;&;&;&;&;&;&;&;&;
p385
I1
sV-__-
p386
I1
sV"@_
p387
I2
sV..@
p388
I2
sV()
p389
I86
sV../
p390
I1
sV...
p391
I100
sV..-
p392
I1
sV..,
p393
I5
sV..*
p394
I2
sV..)
p395
I2
sV..'
p396
I3
sV"@:
p397
I87
sV..#
p398
I12
sV.."
p399
I6
sV..!
p400
I6
sV"....
p401
I4
sV..?
p402
I4
sV"@"
p403
I1
sV#&;;#;:
p404
I1
sV..:
p405
I6
sV####.
p406
I1
sV#####
p407
I7
sV...!!!
p408
I4
sV&;-----
p409
I1
sV#######
p410
I1
sV!:-)
p411
I1
sV///?
p412
I1
sV.!!
p413
I5
sV.!'
p414
I1
sV-_-
p415
I7
sV????????????
p416
I2
sV#--
p417
I20
sV+...
p418
I2
sV(@_)
p419
I1
sV$.(
p420
I2
sV())
p421
I2
sV&;&;&;&;&;&;
p422
I4
sV(--)
p423
I4
sV()!!!
p424
I1
sV&;:
p425
I3
sV&;;
p426
I8
sV&;=
p427
I1
sV%...
p428
I1
sV?://./
p429
I1
sV()-
p430
I3
sV&;)
p431
I1
sV???!!!!
p432
I1
sV&;+
p433
I1
sV&;-
p434
I10
sV&;.
p435
I5
sV&;/
p436
I4
sV,,,,,*
p437
I2
sV&;!
p438
I2
sV&;#
p439
I1
sV&;'
p440
I5
sV://./?
p441
I6
sV://./:
p442
I6
sV,,+
p443
I1
sV://./'
p444
I1
sV://./!
p445
I3
sV://./#
p446
I6
sV,,,
p447
I8
sV://./,
p448
I2
sV,,!
p449
I1
sV://./.
p450
I19
sV://./)
p451
I29
sV?!?!
p452
I3
sV_____
p453
I1
sV?!?"
p454
I1
sV()--
p455
I2
sV...@
p456
I1
sV[]
p457
I36
sV-...
p458
I4
sV+++
p459
I3
sV.(
p460
I2
sV.)
p461
I12
sV.*
p462
I1
sV.,
p463
I10
sV.-
p464
I6
sV..
p465
I100
sV./
p466
I3
sV.!
p467
I14
sV."
p468
I59
sV.#
p469
I19
sV.$
p470
I1
sV.%
p471
I2
sV.'
p472
I3
sV[#]
p473
I1
sV.:
p474
I14
sV.?
p475
I4
sV[::
p476
I2
sV"!"
p477
I2
sV&;;;
p478
I1
sV.@.##
p479
I1
sV.@
p480
I28
sV.............
p481
I1
sV#!!!
p482
I6
sV@__!
p483
I1
sV#&;
p484
I19
sV._
p485
I5
sV!!!!!!!!!!!!!
p486
I1
sV?.?
p487
I1
sV('
p488
I7
sV..."
p489
I10
sV...#
p490
I14
sV...!
p491
I7
sV...'
p492
I16
sV...*
p493
I1
sV...)
p494
I3
sV....
p495
I87
sV=""&;
p496
I1
sV/),,/)
p497
I1
sV[#
p498
I1
sV--....
p499
I1
sV.~
p500
I1
sV.
I100
sV...:
p501
I7
sV[.
p502
I4
sV#??
p503
I1
sV[,
p504
I1
sV'?
p505
I4
sV':
p506
I1
sV??????????????
p507
I1
sV://.://./
p508
I1
sV'$
p509
I1
sV'#
p510
I8
sV'"
p511
I4
sV'!
p512
I34
sV'.
p513
I24
sV'-
p514
I2
sV',
p515
I15
sV')
p516
I4
sV??????
p517
I3
sV{{||}}
p518
I1
sV#-#
p519
I2
sV%
I83
sV#&;#
p520
I5
sV#&;.
p521
I1
sV@_.
p522
I8
sV@_,
p523
I4
sV@_)
p524
I1
sV#!#
p525
I1
sV@_'
p526
I1
sV#!!
p527
I5
sV@_"
p528
I1
sV@_!
p529
I2
sV@__
p530
I96
sV#&;@
p531
I1
sV#@.|
p532
I2
sV#____
p533
I1
sV#-,
p534
I9
sV,,,,,
p535
I3
sV???!!!
p536
I1
sV@_@
p537
I2
sV#&;;#;
p538
I5
sV}
I30
sV']
p539
I5
sV:):
p540
I1
sV:)"
p541
I2
sV:)#
p542
I1
sV'@
p543
I1
sV:).
p544
I6
sV...........
p545
I2
sV#(:
p546
I6
sV??"@:
p547
I1
sV:))
p548
I22
sV:,
p549
I3
sV:-
p550
I14
sV:.
p551
I15
sV:/
p552
I57
sV:(
p553
I51
sV:)
p554
I99
sV:*
p555
I20
sV:$
p556
I2
sV:%
p557
I4
sV.__.
p558
I1
sV:'
p559
I1
sV:!
p560
I1
sV:"
p561
I16
sV:#
p562
I2
sV:{,
p563
I1
sV:?
p564
I1
sV?..
p565
I3
sV/
I99
sV::
p566
I26
sV#://..//
p567
I1
sV=%;#!
p568
I1
sV&;*
p569
I3
sV"@____:
p570
I1
sV.--.-.
p571
I1
sV################################################
p572
I1
sV^.^
p573
I8
sV:|
p574
I4
sV@!!!!
p575
I1
sV/.?
p576
I1
sV....!!!
p577
I1
sV'#'
p578
I1
sV:\u005c
p579
I1
sV"#__:
p580
I1
sV:_
p581
I2
sV...........!
p582
I1
sV="...
p583
I1
sV(@)
p584
I5
sV____
p585
I2
sV$"/"$"/"$'
p586
I1
sV{,---}.
p587
I1
sV[://./]
p588
I1
sV.://./
p589
I2
sV$:*$:*
p590
I1
sV."""
p591
I1
sV=))
p592
I1
sV====&;
p593
I2
sV;:
p594
I2
sV;
I58
sV.&;
p595
I2
sV/...
p596
I1
sV......!!!
p597
I1
sV----:
p598
I1
sV"___
p599
I1
sV-----
p600
I1
sV'...
p601
I4
sV[
I33
sV='(
p602
I1
sV)*(*)*
p603
I1
sV:))!
p604
I1
sV#(?)
p605
I1
sV.......
p606
I12
sV-://./
p607
I1
sV{
I32
sV#!!!!!!!!!!!!!!!!
p608
I1
sV&;://./
p609
I2
sV://./"
p610
I59
sV`,
p611
I1
sV#&;#!###
p612
I1
sV,-.
p613
I1
sV;*
p614
I1
sV........
p615
I7
sV.......,
p616
I1
sV;)
p617
I64
sV..=)
p618
I1
sV(((
p619
I1
sV(..)
p620
I2
sV!!!!!:
p621
I1
sV&;=[
p622
I1
sV!:-*#
p623
I1
sV!!!!!!
p624
I21
sV**"@:
p625
I1
sV!!!!!#
p626
I1
sV&;/-
p627
I2
sV&;/"
p628
I1
sV~~&;
p629
I1
sV``
p630
I1
sV...#.
p631
I2
sV#_#__#_#____#_#_
p632
I3
sV----
p633
I2
sV---.
p634
I6
sV##%#
p635
I1
sV&;=-
p636
I1
sV,&;
p637
I2
sV..&;
p638
I1
sV#&;#;,
p639
I1
sV...................
p640
I1
sV#&;#;:
p641
I14
sV!!)"
p642
I1
sV#,,,&;
p643
I1
sV@_...
p644
I1
sV####@#
p645
I1
sV,'
p646
I7
sV#____________
p647
I2
sV,"
p648
I2
sV,#
p649
I1
sV,!
p650
I8
sV,.
p651
I13
sV,,
p652
I22
sV#___
p653
I12
sV,+
p654
I1
sV-.-)
p655
I1
sV*...
p656
I1
sV!'
p657
I15
sV,?
p658
I4
sV,:
p659
I1
sV?@
p660
I1
sV??
p661
I72
sV:):)
p662
I1
sV?=
p663
I1
sV?:
p664
I5
sV,@
p665
I3
sV-.-'
p666
I1
sV?/
p667
I1
sV?.
p668
I3
sV)()
p669
I1
sV?)
p670
I1
sV$$$$$-
p671
I1
sV?'
p672
I7
sV[/]
p673
I1
sV?#
p674
I6
sV?"
p675
I31
sV?!
p676
I43
sV??????????
p677
I1
sV$,"
p678
I1
sV=$
p679
I2
sV"?"
p680
I1
sV$,.
p681
I1
sV$,,
p682
I1
sV"??
p683
I1
sV$,:
p684
I1
sV"-"
p685
I1
sV%,
p686
I1
sV--&;"@__:
p687
I1
sV%.
p688
I4
sV%+
p689
I1
sV+*.
p690
I1
sV%!
p691
I6
sV%#
p692
I5
sV(-,
p693
I1
sV(--
p694
I4
sV(-)
p695
I9
sV:&;
p696
I3
sV?????
p697
I4
sV/......
p698
I2
sV;...
p699
I2
sV_..
p700
I2
sV@_______
p701
I1
sV&;;#;
p702
I3
sV_.._
p703
I2
sV.__(_
p704
I1
sV|://./
p705
I2
sV&;---
p706
I2
sV!."
p707
I2
sV!..
p708
I7
sV&;&;&;&;&;
p709
I4
sV[[]]
p710
I1
sV"@___:
p711
I4
sV!.
p712
I6
sV.:)
p713
I1
sV.(@)
p714
I1
sV"".
p715
I8
sV""-
p716
I2
sV??"//
p717
I1
sV@./
p718
I2
sV@..
p719
I4
sV$-$-$
p720
I1
sV""#
p721
I1
sV"""
p722
I1
sV:/.
p723
I1
sV://
p724
I71
sV"":
p725
I1
sV@###
p726
I1
sV|
I89
sV(****
p727
I1
sV#,#,#,#,#:
p728
I1
sV://./"'
p729
I1
sV@_____:
p730
I1
sV://./"!
p731
I4
sV://./""
p732
I2
sV://./"#
p733
I1
sV..~*
p734
I1
sV://./".
p735
I1
sV/....',
p736
I1
sV''.
p737
I1
sV'
I100
sV__"
p738
I1
sV'".
p739
I1
sV~&;
p740
I1
sV"&;===
p741
I1
sV~~~~~~~
p742
I1
sV_&;_
p743
I4
sV.,!
p744
I1
sV$$$$
p745
I4
sV___
p746
I9
sV$$$,
p747
I1
sV.,,
p748
I1
sV$$$.
p749
I1
sV:)=))
p750
I1
sV~~~~~~#
p751
I1
sV#________
p752
I8
sV@!!!
p753
I1
sV@______
p754
I3
sV?,
p755
I1
sV-]:
p756
I1
sV-/?
p757
I1
sV.!!.
p758
I1
sV=&;
p759
I5
sV-/,
p760
I1
sV!!!!!!!!!!
p761
I3
sV@___,
p762
I1
sV-()
p763
I1
sV:____
p764
I1
sV:-)&;
p765
I1
sV##
p766
I65
sV@___:
p767
I21
sV$$$$$$
p768
I2
sV:-).
p769
I1
sV!!!!!!!!!?
p770
I1
sV=...
p771
I7
sV-...:
p772
I2
sV\u005c(^^,)/
p773
I1
sV@____
p774
I15
sV,..
p775
I1
sV-...#
p776
I3
sV-....
p777
I1
sV-&;
p778
I8
sV&;&;://./
p779
I1
sV########
p780
I1
sV!!!!
p781
I69
sV:
I100
sV:-(((:
p782
I1
sV--...
p783
I8
sV!!!!!!@:
p784
I1
sV*~
p785
I1
sV!$$!
p786
I1
sV.&;#;,
p787
I1
sV""..
p788
I1
sV!!!!!!!!!
p789
I7
sV!!&;_&;
p790
I1
sV."@:
p791
I1
sV!$!@
p792
I2
sV@___
p793
I42
sV*]
p794
I1
sV#,#,#,#,#,#:
p795
I1
sV*_
p796
I3
sV&;~&;
p797
I1
sV///$$$
p798
I1
sV;-;
p799
I1
sV^)
p800
I1
sV^-
p801
I1
sV^.
p802
I1
sV?!?!?!
p803
I1
sV^#
p804
I1
sV=
I55
sV;-)
p805
I16
sV!!!!!!!!!!!!!!!!!!
p806
I1
sV!!!!!!!!!!!!!!!!!!!
p807
I1
sV^^
p808
I7
sV$...
p809
I1
sV|=}}
p810
I1
sV*,
p811
I3
sV*(
p812
I1
sV**...!
p813
I1
sV**
p814
I57
sV...://./
p815
I1
sV]
I32
sV???
p816
I36
sV*"
p817
I1
sV*#
p818
I1
sV@__"
p819
I1
sV)/...
p820
I1
sV(://./)
p821
I3
sV@__.
p822
I2
sV?!?
p823
I7
sV@__:
p824
I85
sV"://./"
p825
I1
sV./.:
p826
I1
sV$$$
p827
I4
sV:-)!!!
p828
I1
sV.@_
p829
I8
sV....'...
p830
I1
sV???????????
p831
I1
sV_]
p832
I1
sV!!!....
p833
I1
sV^^^
p834
I1
sV#########
p835
I1
sV!!:*
p836
I1
sV!://./
p837
I1
sV(-:
p838
I1
sV(
I100
sV~~~~
p839
I1
sV://./"!!!
p840
I1
sV?...
p841
I2
sV##,
p842
I1
sV##.
p843
I1
sV__""
p844
I1
sV!!(:
p845
I1
sV##'
p846
I1
sV#----...
p847
I1
sV::'(
p848
I1
sV###
p849
I25
sV==
p850
I2
sV?!?!?!?
p851
I1
sV-_____-"@:
p852
I1
sV#_'_
p853
I3
sV;-))
p854
I1
sV=.
p855
I2
sV=)
p856
I7
sV=(
p857
I1
sV...!!!!
p858
I2
sV!??
p859
I1
sV#*!
p860
I1
sV:'(
p861
I13
sV:')
p862
I12
sV.@.
p863
I4
sV!?!
p864
I2
sV!"@_:
p865
I1
sV#)
p866
I4
sV#(
p867
I2
sV#/
p868
I2
sV#.
p869
I82
sV#-
p870
I90
sV#,
p871
I69
sV(,,)(,,)
p872
I1
sV#"
p873
I30
sV#!
p874
I54
sV!!!:
p875
I1
sV#'
p876
I53
sV#%
p877
I3
sV.../
p878
I1
sV#;
p879
I2
sV#:
p880
I69
sV!!!#
p881
I2
sV!!!"
p882
I2
sV#?
p883
I29
sV...,
p884
I3
sV#=
p885
I1
sV!!!)
p886
I1
sV:)..
p887
I1
sV!!!.
p888
I2
sV(.)
p889
I5
sV"#'
p890
I1
sV"#"
p891
I2
sV((()))
p892
I1
sV?!#
p893
I1
sV?!"
p894
I4
sV?!!
p895
I3
sV!@#
p896
I2
sV!?!"
p897
I1
sV@!!
p898
I2
sV#..#.....
p899
I1
sV#`
p900
I1
sV!@$
p901
I2
sV!@?
p902
I1
sV#|
p903
I1
sV::...
p904
I3
sV#@
p905
I8
sV...?
p906
I7
sV!!!@
p907
I1
sV=)))
p908
I1
sV!$!
p909
I3
sV/!?
p910
I1
sV&;&;&;
p911
I15
sV.?!
p912
I1
sV#!!!!##
p913
I1
sV^________________________^
p914
I1
sV*_'
p915
I3
sV="://./"&;://./&;/&;!
p916
I3
sV.....:'(
p917
I1
sV}:
p918
I1
sV.-.
p919
I4
sV.--
p920
I1
sV{{||
p921
I1
sV!##
p922
I1
sV[-]
p923
I1
sV}()
p924
I3
sV?:(
p925
I1
sV?:)
p926
I2
sV$$."
p927
I1
sV&;&;
p928
I31
sV(",)
p929
I2
sV??!?
p930
I1
sV-.-
p931
I12
sV??!'
p932
I1
sV@@@_
p933
I1
sV-.'
p934
I1
sV''
p935
I35
sV=$.
p936
I1
sV?!!!
p937
I1
sV_____~~
p938
I1
sV~
I67
sV!!!!!!!!!!!!!!!!
p939
I2
sV""&;
p940
I1
sV-%!
p941
I5
sV&;--
p942
I2
sV-____-
p943
I2
sV/\u005c
p944
I2
sV..?"
p945
I1
sV?????????????
p946
I1
sV-___-
p947
I3
sV)
I100
sV"://./
p948
I1
sV..!!!
p949
I2
sV#_
p950
I39
sV{,
p951
I7
sV/&;#;,
p952
I1
sV@________
p953
I2
sV###:
p954
I11
sV"@__:
p955
I16
sV$$$$$$$$$
p956
I1
sV####
p957
I9
sV...!!
p958
I2
sV\u005c(_)/
p959
I1
sV@_:
p960
I100
sV******
p961
I1
sV###.
p962
I2
sV@_;
p963
I2
sV//
p964
I67
sV/.
p965
I17
sV/-
p966
I4
sV/,
p967
I9
sV/+
p968
I1
sV...()
p969
I1
sV/(
p970
I1
sV..://./
p971
I3
sV/$
p972
I1
sV/#
p973
I5
sV/"
p974
I1
sV,/,
p975
I1
sV/?
p976
I5
sV&;;====
p977
I1
sV/:
p978
I17
sV:))))
p979
I4
sV!????
p980
I1
sV-..
p981
I3
sV?????????
p982
I1
sV&;/&;
p983
I1
sV##!!
p984
I1
sV!||
p985
I2
sV#(-:
p986
I1
sV#;)
p987
I1
sV...&;
p988
I1
sV:::
p989
I2
sV#"@
p990
I1
sV..),
p991
I1
sV\u005c
I3
sV\u005c/
p992
I4
sV(@
p993
I29
sV(:
p994
I52
sV_?
p995
I1
sV).....
p996
I1
sV=_=
p997
I1
sV!!..@
p998
I1
sV(*
p999
I2
sV((
p1000
I9
sV"",
p1001
I2
sV(.
p1002
I35
sV(/
p1003
I9
sV(,
p1004
I25
sV(-
p1005
I6
sV("
p1006
I1
sV(#
p1007
I4
sV&;:{
p1008
I1
sV((((((:))))))))
p1009
I1
sV@#$%&;*-+()
p1010
I1
sV$.$
p1011
I1
sV$.,
p1012
I1
sV$./
p1013
I1
sV'....
p1014
I2
sV._*
p1015
I3
sV#{}
p1016
I1
sV@_::
p1017
I1
sV#!?!
p1018
I1
sV....::::
p1019
I1
sV!!!???
p1020
I1
sV@_:,
p1021
I1
sV#-.
p1022
I1
sV(&;
p1023
I1
sV#...
p1024
I47
sV!!!!!..#
p1025
I1
sV^_*
p1026
I1
sV#.....
p1027
I1
sV~!!!:
p1028
I1
sV#-:
p1029
I1
sV^-^
p1030
I5
sV?
I100
sV_*
p1031
I21
sV@____:
p1032
I5
sV!"_"!
p1033
I1
sV;;
p1034
I1
sV((:
p1035
I2
sV;"
p1036
I1
sV^_^
p1037
I8
sV:)))
p1038
I6
sV/....
p1039
I1
sV;(
p1040
I1
sV_
I77
sV:-*
p1041
I4
sV:-(
p1042
I4
sV:-)
p1043
I50
sV:-/
p1044
I4
sV&;----
p1045
I1
sV:-$
p1046
I1
sV(/)
p1047
I3
sV:-:
p1048
I1
sV.....!!!
p1049
I1
sV!!
p1050
I100
sV!#
p1051
I11
sV!"
p1052
I27
sV!$
p1053
I4
sV-="--"
p1054
I1
sV@""
p1055
I1
sV!)
p1056
I8
sV!-
p1057
I22
sV!,
p1058
I3
sV.....??
p1059
I1
sV.........
p1060
I3
sV'',
p1061
I2
sV!;
p1062
I1
sV!:
p1063
I8
sV!?
p1064
I14
sV*
I55
sV."@
p1065
I1
sV'@_
p1066
I2
sV&;&;&;://./"
p1067
I1
sV#....
p1068
I9
sV{}@:
p1069
I1
sV."-
p1070
I2
sV."#
p1071
I1
sV!@
p1072
I3
sV##@@!!!
p1073
I2
sV[][]
p1074
I1
sV-------------
p1075
I2
sV---&;://./
p1076
I2
sV:))"@:
p1077
I1
sV".+"
p1078
I1
sV!]
p1079
I1
sV--:
p1080
I19
sV&;&;---
p1081
I1
sV---
p1082
I10
sV--,
p1083
I3
sV(...
p1084
I3
sV--.
p1085
I6
sV--)
p1086
I4
sV!!..
p1087
I1
sV''...
p1088
I1
sV--'
p1089
I2
sV...;)
p1090
I1
sV--!
p1091
I2
sV"@._:
p1092
I1
sV--"
p1093
I2
sV!!!!"
p1094
I1
sV=))))))
p1095
I2
sV}}
p1096
I1
sV@_!!!!
p1097
I1
sV{{
p1098
I1
sV:)!
p1099
I2
sV{}
p1100
I14
sV!!!!!!!!!!!
p1101
I2
sV"@_:
p1102
I59
sV@&;&;&;&;&;&;
p1103
I1
sV(.-)
p1104
I2
sV(#)
p1105
I1
sV(-).
p1106
I1
sV.,.
p1107
I4
stRp1108
(dp1109
S'_N'
p1110
I9491
sS'_max_cache'
p1111
NsS'_item_cache'
p1112
(lp1113
(V
I100
tp1114
a(V!
I100
tp1115
a(g1050
I100
tp1116
a(V#
I100
tp1117
a(g66
I100
tp1118
a(V'
I100
tp1119
a(V(
I100
tp1120
a(V)
I100
tp1121
a(V,
I100
tp1122
a(V-
I100
tp1123
a(V.
I100
tp1124
a(g465
I100
tp1125
a(g391
I100
tp1126
a(V:
I100
tp1127
a(g334
I100
tp1128
a(V?
I100
tp1129
a(V@
I100
tp1130
a(g82
I100
tp1131
a(g57
I100
tp1132
a(g960
I100
tp1133
a(g116
I99
tp1134
a(V"
I99
tp1135
a(V/
I99
tp1136
a(g554
I99
tp1137
a(g530
I96
tp1138
a(V+
I94
tp1139
a(g361
I92
tp1140
a(g870
I90
tp1141
a(V|
I89
tp1142
a(g397
I87
tp1143
a(g495
I87
tp1144
a(g389
I86
tp1145
a(g824
I85
tp1146
a(V%
I83
tp1147
a(g869
I82
tp1148
a(g44
I78
tp1149
a(V_
I77
tp1150
a(g661
I72
tp1151
a(g724
I71
tp1152
a(g781
I69
tp1153
a(g871
I69
tp1154
a(g880
I69
tp1155
a(V$
I68
tp1156
a(g964
I67
tp1157
a(V~
I67
tp1158
a(g766
I65
tp1159
a(g617
I64
tp1160
a(g350
I63
tp1161
a(g1102
I59
tp1162
a(g468
I59
tp1163
a(g610
I59
tp1164
a(V;
I58
tp1165
a(g814
I57
tp1166
a(g552
I57
tp1167
a(V*
I55
tp1168
a(g47
I55
tp1169
a(V=
I55
tp1170
a(g874
I54
tp1171
a(g75
I54
tp1172
a(g876
I53
tp1173
a(g994
I52
tp1174
a(g553
I51
tp1175
a(g1043
I50
tp1176
a(g205
I49
tp1177
a(g1024
I47
tp1178
a(g137
I47
tp1179
a(g157
I46
tp1180
a(g676
I43
tp1181
a(g18
I42
tp1182
a(g793
I42
tp1183
a(g950
I39
tp1184
a(g89
I38
tp1185
a(g168
I37
tp1186
a(g816
I36
tp1187
a(g457
I36
tp1188
a(g935
I35
tp1189
a(g1002
I35
tp1190
a(g512
I34
tp1191
a(g223
I34
tp1192
a(V[
I33
tp1193
a(g317
I32
tp1194
a(V]
I32
tp1195
a(V{
I32
tp1196
a(g928
I31
tp1197
a(g675
I31
tp1198
a(g873
I30
tp1199
a(g45
I30
tp1200
a(V}
I30
tp1201
a(g348
I29
tp1202
a(g883
I29
tp1203
a(g993
I29
tp1204
a(g451
I29
tp1205
a(g139
I29
tp1206
a(g480
I28
tp1207
a(g1052
I27
tp1208
a(g566
I26
tp1209
a(g849
I25
tp1210
a(g1004
I25
tp1211
a(g513
I24
tp1212
a(g111
I24
tp1213
a(g370
I23
tp1214
a(g354
I23
tp1215
a(g1057
I22
tp1216
a(g652
I22
tp1217
a(g41
I22
tp1218
a(g548
I22
tp1219
a(g624
I21
tp1220
a(g283
I21
tp1221
a(g767
I21
tp1222
a(g1031
I21
tp1223
a(g417
I20
tp1224
a(g380
I20
tp1225
a(g555
I20
tp1226
a(g378
I20
tp1227
a(g484
I19
tp1228
a(g326
I19
tp1229
a(g1080
I19
tp1230
a(g469
I19
tp1231
a(g450
I19
tp1232
a(g53
I18
tp1233
a(g158
I18
tp1234
a(g286
I17
tp1235
a(g965
I17
tp1236
a(g978
I17
tp1237
a(g25
I17
tp1238
a(g955
I16
tp1239
a(g29
I16
tp1240
a(g34
I16
tp1241
a(g492
I16
tp1242
a(g561
I16
tp1243
a(g805
I16
tp1244
a(V^
I16
tp1245
a(g657
I15
tp1246
a(g911
I15
tp1247
a(g515
I15
tp1248
a(g297
I15
tp1249
a(g551
I15
tp1250
a(g70
I15
tp1251
a(g774
I15
tp1252
a(V`
I15
tp1253
a(g1064
I14
tp1254
a(g641
I14
tp1255
a(g467
I14
tp1256
a(g490
I14
tp1257
a(g474
I14
tp1258
a(g550
I14
tp1259
a(g1100
I14
tp1260
a(g222
I14
tp1261
a(g651
I13
tp1262
a(g861
I13
tp1263
a(g372
I13
tp1264
a(g287
I12
tp1265
a(g340
I12
tp1266
a(g653
I12
tp1267
a(g931
I12
tp1268
a(g461
I12
tp1269
a(g398
I12
tp1270
a(g606
I12
tp1271
a(g862
I12
tp1272
a(g1051
I11
tp1273
a(g202
I11
tp1274
a(g954
I11
tp1275
a(g207
I11
tp1276
a(g142
I11
tp1277
a(g90
I11
tp1278
a(g333
I11
tp1279
a(g329
I11
tp1280
a(g179
I10
tp1281
a(g328
I10
tp1282
a(g434
I10
tp1283
a(g295
I10
tp1284
a(g1082
I10
tp1285
a(g134
I10
tp1286
a(g463
I10
tp1287
a(g489
I10
tp1288
a(g68
I10
tp1289
a(g77
I10
tp1290
a(g355
I9
tp1291
a(g957
I9
tp1292
a(g534
I9
tp1293
a(g1068
I9
tp1294
a(g1000
I9
tp1295
a(g695
I9
tp1296
a(g1003
I9
tp1297
a(g291
I9
tp1298
a(g48
I9
tp1299
a(g23
I9
tp1300
a(g967
I9
tp1301
a(g74
I9
tp1302
a(g156
I9
tp1303
a(g746
I9
tp1304
a(g364
I8
tp1305
a(g1056
I8
tp1306
a(g1063
I8
tp1307
a(g715
I8
tp1308
a(g905
I8
tp1309
a(g752
I8
tp1310
a(g426
I8
tp1311
a(g510
I8
tp1312
a(g650
I8
tp1313
a(g447
I8
tp1314
a(g778
I8
tp1315
a(g783
I8
tp1316
a(g829
I8
tp1317
a(g296
I8
tp1318
a(g69
I8
tp1319
a(g14
I8
tp1320
a(g522
I8
tp1321
a(g573
I8
tp1322
a(g1037
I8
tp1323
a(g789
I7
tp1324
a(g708
I7
tp1325
a(g353
I7
tp1326
a(g363
I7
tp1327
a(g407
I7
tp1328
a(g488
I7
tp1329
a(g646
I7
tp1330
a(g61
I7
tp1331
a(g13
I7
tp1332
a(g415
I7
tp1333
a(g491
I7
tp1334
a(g615
I7
tp1335
a(g501
I7
tp1336
a(g906
I7
tp1337
a(g856
I7
tp1338
a(g771
I7
tp1339
a(g823
I7
tp1340
a(g672
I7
tp1341
a(g72
I7
tp1342
a(g808
I7
tp1343
a(g951
I7
tp1344
a(g712
I6
tp1345
a(g352
I6
tp1346
a(g482
I6
tp1347
a(g546
I6
tp1348
a(g212
I6
tp1349
a(g691
I6
tp1350
a(g1005
I6
tp1351
a(g634
I6
tp1352
a(g1085
I6
tp1353
a(g464
I6
tp1354
a(g400
I6
tp1355
a(g12
I6
tp1356
a(g399
I6
tp1357
a(g405
I6
tp1358
a(g1038
I6
tp1359
a(g544
I6
tp1360
a(g446
I6
tp1361
a(g442
I6
tp1362
a(g441
I6
tp1363
a(g674
I6
tp1364
a(g160
I6
tp1365
a(g159
I6
tp1366
a(g351
I5
tp1367
a(g218
I5
tp1368
a(g527
I5
tp1369
a(g520
I5
tp1370
a(g538
I5
tp1371
a(g183
I5
tp1372
a(g692
I5
tp1373
a(g347
I5
tp1374
a(g440
I5
tp1375
a(g435
I5
tp1376
a(g165
I5
tp1377
a(g230
I5
tp1378
a(g539
I5
tp1379
a(g86
I5
tp1380
a(g266
I5
tp1381
a(g889
I5
tp1382
a(g584
I5
tp1383
a(g941
I5
tp1384
a(g50
I5
tp1385
a(g413
I5
tp1386
a(g129
I5
tp1387
a(g393
I5
tp1388
a(g154
I5
tp1389
a(g485
I5
tp1390
a(g293
I5
tp1391
a(g973
I5
tp1392
a(g976
I5
tp1393
a(g203
I5
tp1394
a(g759
I5
tp1395
a(g664
I5
tp1396
a(g54
I5
tp1397
a(g1032
I5
tp1398
a(g22
I5
tp1399
a(g1030
I5
tp1400
a(g1053
I4
tp1401
a(g360
I4
tp1402
a(g401
I4
tp1403
a(g711
I4
tp1404
a(g866
I4
tp1405
a(g827
I4
tp1406
a(g745
I4
tp1407
a(g257
I4
tp1408
a(g688
I4
tp1409
a(g709
I4
tp1410
a(g422
I4
tp1411
a(g436
I4
tp1412
a(g511
I4
tp1413
a(g516
I4
tp1414
a(g601
I4
tp1415
a(g505
I4
tp1416
a(g1007
I4
tp1417
a(g694
I4
tp1418
a(g423
I4
tp1419
a(g302
I4
tp1420
a(g186
I4
tp1421
a(g188
I4
tp1422
a(g658
I4
tp1423
a(g43
I4
tp1424
a(g1086
I4
tp1425
a(g458
I4
tp1426
a(g46
I4
tp1427
a(g1107
I4
tp1428
a(g919
I4
tp1429
a(g408
I4
tp1430
a(g402
I4
tp1431
a(g199
I4
tp1432
a(g475
I4
tp1433
a(g863
I4
tp1434
a(g215
I4
tp1435
a(g966
I4
tp1436
a(g557
I4
tp1437
a(g221
I4
tp1438
a(g979
I4
tp1439
a(g1042
I4
tp1440
a(g1041
I4
tp1441
a(g1044
I4
tp1442
a(g731
I4
tp1443
a(g574
I4
tp1444
a(g894
I4
tp1445
a(g697
I4
tp1446
a(g73
I4
tp1447
a(g719
I4
tp1448
a(g523
I4
tp1449
a(g502
I4
tp1450
a(g992
I4
tp1451
a(g743
I4
tp1452
a(g761
I3
tp1453
a(g119
I3
tp1454
a(g909
I3
tp1455
a(g1058
I3
tp1456
a(g1072
I3
tp1457
a(g349
I3
tp1458
a(g217
I3
tp1459
a(g235
I3
tp1460
a(g877
I3
tp1461
a(g632
I3
tp1462
a(g853
I3
tp1463
a(g94
I3
tp1464
a(g324
I3
tp1465
a(g311
I3
tp1466
a(g569
I3
tp1467
a(g425
I3
tp1468
a(g702
I3
tp1469
a(g88
I3
tp1470
a(g430
I3
tp1471
a(g1084
I3
tp1472
a(g1047
I3
tp1473
a(g821
I3
tp1474
a(g298
I3
tp1475
a(g175
I3
tp1476
a(g811
I3
tp1477
a(g796
I3
tp1478
a(g915
I3
tp1479
a(g459
I3
tp1480
a(g535
I3
tp1481
a(g665
I3
tp1482
a(g42
I3
tp1483
a(g1083
I3
tp1484
a(g981
I3
tp1485
a(g776
I3
tp1486
a(g947
I3
tp1487
a(g472
I3
tp1488
a(g396
I3
tp1489
a(g494
I3
tp1490
a(g884
I3
tp1491
a(g21
I3
tp1492
a(g1060
I3
tp1493
a(g971
I3
tp1494
a(g466
I3
tp1495
a(g1015
I3
tp1496
a(g255
I3
tp1497
a(g696
I3
tp1498
a(g343
I3
tp1499
a(g549
I3
tp1500
a(g445
I3
tp1501
a(g904
I3
tp1502
a(g916
I3
tp1503
a(g895
I3
tp1504
a(g452
I3
tp1505
a(g668
I3
tp1506
a(g565
I3
tp1507
a(g517
I3
tp1508
a(g754
I3
tp1509
a(V\u005c
I3
tp1510
a(g280
I3
tp1511
a(g924
I3
tp1512
a(g1101
I2
tp1513
a(g325
I2
tp1514
a(g939
I2
tp1515
a(g882
I2
tp1516
a(g881
I2
tp1517
a(g888
I2
tp1518
a(g118
I2
tp1519
a(g125
I2
tp1520
a(g792
I2
tp1521
a(g229
I2
tp1522
a(g707
I2
tp1523
a(g864
I2
tp1524
a(g896
I2
tp1525
a(g901
I2
tp1526
a(g985
I2
tp1527
a(g477
I2
tp1528
a(g1001
I2
tp1529
a(g716
I2
tp1530
a(g891
I2
tp1531
a(g164
I2
tp1532
a(g362
I2
tp1533
a(g387
I2
tp1534
a(g100
I2
tp1535
a(g101
I2
tp1536
a(g962
I2
tp1537
a(g1073
I2
tp1538
a(g294
I2
tp1539
a(g867
I2
tp1540
a(g152
I2
tp1541
a(g319
I2
tp1542
a(g238
I2
tp1543
a(g519
I2
tp1544
a(g112
I2
tp1545
a(g868
I2
tp1546
a(g32
I2
tp1547
a(g33
I2
tp1548
a(g879
I2
tp1549
a(g181
I2
tp1550
a(g532
I2
tp1551
a(g647
I2
tp1552
a(g209
I2
tp1553
a(g768
I2
tp1554
a(g420
I2
tp1555
a(g438
I2
tp1556
a(g62
I2
tp1557
a(g942
I2
tp1558
a(g706
I2
tp1559
a(g627
I2
tp1560
a(g609
I2
tp1561
a(g225
I2
tp1562
a(g1061
I2
tp1563
a(g514
I2
tp1564
a(g1014
I2
tp1565
a(g106
I2
tp1566
a(g1066
I2
tp1567
a(g929
I2
tp1568
a(g1035
I2
tp1569
a(g421
I2
tp1570
a(g455
I2
tp1571
a(g999
I2
tp1572
a(g1104
I2
tp1573
a(g620
I2
tp1574
a(g299
I2
tp1575
a(g300
I2
tp1576
a(g323
I2
tp1577
a(g113
I2
tp1578
a(g418
I2
tp1579
a(g195
I2
tp1580
a(g648
I2
tp1581
a(g637
I2
tp1582
a(g437
I2
tp1583
a(g341
I2
tp1584
a(g38
I2
tp1585
a(g49
I2
tp1586
a(g1091
I2
tp1587
a(g1093
I2
tp1588
a(g1089
I2
tp1589
a(g1076
I2
tp1590
a(g633
I2
tp1591
a(g1075
I2
tp1592
a(g166
I2
tp1593
a(g772
I2
tp1594
a(g943
I2
tp1595
a(g1070
I2
tp1596
a(g471
I2
tp1597
a(g595
I2
tp1598
a(g315
I2
tp1599
a(g460
I2
tp1600
a(g251
I2
tp1601
a(g161
I2
tp1602
a(g949
I2
tp1603
a(g261
I2
tp1604
a(g395
I2
tp1605
a(g394
I2
tp1606
a(g958
I2
tp1607
a(g858
I2
tp1608
a(g631
I2
tp1609
a(g24
I2
tp1610
a(g136
I2
tp1611
a(g545
I2
tp1612
a(g388
I2
tp1613
a(g589
I2
tp1614
a(g698
I2
tp1615
a(g379
I2
tp1616
a(g944
I2
tp1617
a(g562
I2
tp1618
a(g556
I2
tp1619
a(g1099
I2
tp1620
a(g541
I2
tp1621
a(g313
I2
tp1622
a(g732
I2
tp1623
a(g448
I2
tp1624
a(g989
I2
tp1625
a(g55
I2
tp1626
a(g59
I2
tp1627
a(g581
I2
tp1628
a(g699
I2
tp1629
a(g594
I2
tp1630
a(g192
I2
tp1631
a(g679
I2
tp1632
a(g1095
I2
tp1633
a(g855
I2
tp1634
a(g850
I2
tp1635
a(g593
I2
tp1636
a(g28
I2
tp1637
a(g245
I2
tp1638
a(g841
I2
tp1639
a(g926
I2
tp1640
a(g416
I2
tp1641
a(g898
I2
tp1642
a(g78
I2
tp1643
a(g271
I2
tp1644
a(g718
I2
tp1645
a(g529
I2
tp1646
a(g963
I2
tp1647
a(g537
I2
tp1648
a(g822
I2
tp1649
a(g953
I2
tp1650
a(g476
I2
tp1651
a(g15
I2
tp1652
a(g700
I2
tp1653
a(g703
I2
tp1654
a(g585
I2
tp1655
a(g65
I2
tp1656
a(g705
I2
tp1657
a(g146
I2
tp1658
a(g486
I1
tp1659
a(g806
I1
tp1660
a(g807
I1
tp1661
a(g63
I1
tp1662
a(g770
I1
tp1663
a(g155
I1
tp1664
a(g331
I1
tp1665
a(g191
I1
tp1666
a(g39
I1
tp1667
a(g365
I1
tp1668
a(g227
I1
tp1669
a(g784
I1
tp1670
a(g626
I1
tp1671
a(g1025
I1
tp1672
a(g621
I1
tp1673
a(g1094
I1
tp1674
a(g169
I1
tp1675
a(g167
I1
tp1676
a(g163
I1
tp1677
a(g254
I1
tp1678
a(g886
I1
tp1679
a(g359
I1
tp1680
a(g833
I1
tp1681
a(g875
I1
tp1682
a(g1020
I1
tp1683
a(g907
I1
tp1684
a(g790
I1
tp1685
a(g115
I1
tp1686
a(g122
I1
tp1687
a(g845
I1
tp1688
a(g642
I1
tp1689
a(g120
I1
tp1690
a(g121
I1
tp1691
a(g1087
I1
tp1692
a(g998
I1
tp1693
a(g836
I1
tp1694
a(g124
I1
tp1695
a(g314
I1
tp1696
a(g128
I1
tp1697
a(g277
I1
tp1698
a(g249
I1
tp1699
a(g865
I1
tp1700
a(g1033
I1
tp1701
a(g922
I1
tp1702
a(g786
I1
tp1703
a(g143
I1
tp1704
a(g338
I1
tp1705
a(g301
I1
tp1706
a(g231
I1
tp1707
a(g81
I1
tp1708
a(g97
I1
tp1709
a(g337
I1
tp1710
a(g411
I1
tp1711
a(g623
I1
tp1712
a(g837
I1
tp1713
a(g1062
I1
tp1714
a(g256
I1
tp1715
a(g79
I1
tp1716
a(g897
I1
tp1717
a(g859
I1
tp1718
a(g980
I1
tp1719
a(g902
I1
tp1720
a(g1079
I1
tp1721
a(g95
I1
tp1722
a(g210
I1
tp1723
a(g722
I1
tp1724
a(g721
I1
tp1725
a(g940
I1
tp1726
a(g788
I1
tp1727
a(g725
I1
tp1728
a(g890
I1
tp1729
a(g580
I1
tp1730
a(g110
I1
tp1731
a(g741
I1
tp1732
a(g228
I1
tp1733
a(g356
I1
tp1734
a(g373
I1
tp1735
a(g685
I1
tp1736
a(g1078
I1
tp1737
a(g236
I1
tp1738
a(g276
I1
tp1739
a(g948
I1
tp1740
a(g825
I1
tp1741
a(g680
I1
tp1742
a(g683
I1
tp1743
a(g185
I1
tp1744
a(g403
I1
tp1745
a(g1092
I1
tp1746
a(g570
I1
tp1747
a(g345
I1
tp1748
a(g599
I1
tp1749
a(g201
I1
tp1750
a(g608
I1
tp1751
a(g913
I1
tp1752
a(g525
I1
tp1753
a(g1018
I1
tp1754
a(g990
I1
tp1755
a(g270
I1
tp1756
a(g984
I1
tp1757
a(g358
I1
tp1758
a(g410
I1
tp1759
a(g780
I1
tp1760
a(g835
I1
tp1761
a(g572
I1
tp1762
a(g406
I1
tp1763
a(g645
I1
tp1764
a(g635
I1
tp1765
a(g846
I1
tp1766
a(g842
I1
tp1767
a(g843
I1
tp1768
a(g612
I1
tp1769
a(g639
I1
tp1770
a(g521
I1
tp1771
a(g404
I1
tp1772
a(g531
I1
tp1773
a(g290
I1
tp1774
a(g288
I1
tp1775
a(g252
I1
tp1776
a(g986
I1
tp1777
a(g605
I1
tp1778
a(g860
I1
tp1779
a(g248
I1
tp1780
a(g795
I1
tp1781
a(g728
I1
tp1782
a(g357
I1
tp1783
a(g643
I1
tp1784
a(g847
I1
tp1785
a(g1022
I1
tp1786
a(g1029
I1
tp1787
a(g899
I1
tp1788
a(g1027
I1
tp1789
a(g198
I1
tp1790
a(g309
I1
tp1791
a(g182
I1
tp1792
a(g273
I1
tp1793
a(g567
I1
tp1794
a(g987
I1
tp1795
a(g885
I1
tp1796
a(g170
I1
tp1797
a(g26
I1
tp1798
a(g503
I1
tp1799
a(g109
I1
tp1800
a(g172
I1
tp1801
a(g193
I1
tp1802
a(g533
I1
tp1803
a(g900
I1
tp1804
a(g1016
I1
tp1805
a(g903
I1
tp1806
a(g586
I1
tp1807
a(g178
I1
tp1808
a(g956
I1
tp1809
a(g671
I1
tp1810
a(g747
I1
tp1811
a(g749
I1
tp1812
a(g927
I1
tp1813
a(g307
I1
tp1814
a(g208
I1
tp1815
a(g678
I1
tp1816
a(g682
I1
tp1817
a(g681
I1
tp1818
a(g85
I1
tp1819
a(g684
I1
tp1820
a(g720
I1
tp1821
a(g1011
I1
tp1822
a(g1012
I1
tp1823
a(g809
I1
tp1824
a(g369
I1
tp1825
a(g1013
I1
tp1826
a(g590
I1
tp1827
a(g211
I1
tp1828
a(g689
I1
tp1829
a(g686
I1
tp1830
a(g428
I1
tp1831
a(g439
I1
tp1832
a(g126
I1
tp1833
a(g131
I1
tp1834
a(g180
I1
tp1835
a(g385
I1
tp1836
a(g330
I1
tp1837
a(g51
I1
tp1838
a(g1067
I1
tp1839
a(g1081
I1
tp1840
a(g779
I1
tp1841
a(g431
I1
tp1842
a(g433
I1
tp1843
a(g1045
I1
tp1844
a(g409
I1
tp1845
a(g628
I1
tp1846
a(g983
I1
tp1847
a(g1008
I1
tp1848
a(g27
I1
tp1849
a(g105
I1
tp1850
a(g478
I1
tp1851
a(g977
I1
tp1852
a(g427
I1
tp1853
a(g636
I1
tp1854
a(g103
I1
tp1855
a(g622
I1
tp1856
a(g107
I1
tp1857
a(g797
I1
tp1858
a(g739
I1
tp1859
a(g578
I1
tp1860
a(g509
I1
tp1861
a(g737
I1
tp1862
a(g214
I1
tp1863
a(g1088
I1
tp1864
a(g312
I1
tp1865
a(g232
I1
tp1866
a(g149
I1
tp1867
a(g234
I1
tp1868
a(g233
I1
tp1869
a(g289
I1
tp1870
a(g506
I1
tp1871
a(g376
I1
tp1872
a(g543
I1
tp1873
a(g1006
I1
tp1874
a(g174
I1
tp1875
a(g1105
I1
tp1876
a(g1023
I1
tp1877
a(g344
I1
tp1878
a(g71
I1
tp1879
a(g619
I1
tp1880
a(g1009
I1
tp1881
a(g892
I1
tp1882
a(g424
I1
tp1883
a(g274
I1
tp1884
a(g727
I1
tp1885
a(g138
I1
tp1886
a(g872
I1
tp1887
a(g339
I1
tp1888
a(g1106
I1
tp1889
a(g693
I1
tp1890
a(g838
I1
tp1891
a(g285
I1
tp1892
a(g197
I1
tp1893
a(g19
I1
tp1894
a(g419
I1
tp1895
a(g144
I1
tp1896
a(g40
I1
tp1897
a(g292
I1
tp1898
a(g669
I1
tp1899
a(g603
I1
tp1900
a(g87
I1
tp1901
a(g996
I1
tp1902
a(g820
I1
tp1903
a(g264
I1
tp1904
a(g320
I1
tp1905
a(g817
I1
tp1906
a(g818
I1
tp1907
a(g281
I1
tp1908
a(g812
I1
tp1909
a(g625
I1
tp1910
a(g961
I1
tp1911
a(g177
I1
tp1912
a(g813
I1
tp1913
a(g656
I1
tp1914
a(g794
I1
tp1915
a(g785
I1
tp1916
a(g184
I1
tp1917
a(g31
I1
tp1918
a(g187
I1
tp1919
a(g690
I1
tp1920
a(g190
I1
tp1921
a(g194
I1
tp1922
a(g17
I1
tp1923
a(g649
I1
tp1924
a(g654
I1
tp1925
a(g449
I1
tp1926
a(g443
I1
tp1927
a(g141
I1
tp1928
a(g102
I1
tp1929
a(g613
I1
tp1930
a(g775
I1
tp1931
a(g975
I1
tp1932
a(g659
I1
tp1933
a(g60
I1
tp1934
a(g384
I1
tp1935
a(g381
I1
tp1936
a(g93
I1
tp1937
a(g226
I1
tp1938
a(g140
I1
tp1939
a(g151
I1
tp1940
a(g763
I1
tp1941
a(g147
I1
tp1942
a(g213
I1
tp1943
a(g687
I1
tp1944
a(g123
I1
tp1945
a(g305
I1
tp1946
a(g600
I1
tp1947
a(g56
I1
tp1948
a(g598
I1
tp1949
a(g499
I1
tp1950
a(g934
I1
tp1951
a(g666
I1
tp1952
a(g655
I1
tp1953
a(g777
I1
tp1954
a(g220
I1
tp1955
a(g760
I1
tp1956
a(g36
I1
tp1957
a(g303
I1
tp1958
a(g757
I1
tp1959
a(g607
I1
tp1960
a(g1054
I1
tp1961
a(g756
I1
tp1962
a(g386
I1
tp1963
a(g189
I1
tp1964
a(g852
I1
tp1965
a(g216
I1
tp1966
a(g758
I1
tp1967
a(g414
I1
tp1968
a(g591
I1
tp1969
a(g1071
I1
tp1970
a(g148
I1
tp1971
a(g1065
I1
tp1972
a(g791
I1
tp1973
a(g114
I1
tp1974
a(g242
I1
tp1975
a(g470
I1
tp1976
a(g787
I1
tp1977
a(g133
I1
tp1978
a(g117
I1
tp1979
a(g714
I1
tp1980
a(g462
I1
tp1981
a(g744
I1
tp1982
a(g748
I1
tp1983
a(g920
I1
tp1984
a(g571
I1
tp1985
a(g130
I1
tp1986
a(g37
I1
tp1987
a(g263
I1
tp1988
a(g638
I1
tp1989
a(g991
I1
tp1990
a(g392
I1
tp1991
a(g988
I1
tp1992
a(g969
I1
tp1993
a(g493
I1
tp1994
a(g577
I1
tp1995
a(g244
I1
tp1996
a(g246
I1
tp1997
a(g830
I1
tp1998
a(g282
I1
tp1999
a(g1049
I1
tp2000
a(g597
I1
tp2001
a(g616
I1
tp2002
a(g84
I1
tp2003
a(g582
I1
tp2004
a(g481
I1
tp2005
a(g336
I1
tp2006
a(g640
I1
tp2007
a(g80
I1
tp2008
a(g917
I1
tp2009
a(g1059
I1
tp2010
a(g1019
I1
tp2011
a(g304
I1
tp2012
a(g878
I1
tp2013
a(g815
I1
tp2014
a(g1090
I1
tp2015
a(g456
I1
tp2016
a(g390
I1
tp2017
a(g272
I1
tp2018
a(g618
I1
tp2019
a(g945
I1
tp2020
a(g383
I1
tp2021
a(g734
I1
tp2022
a(g826
I1
tp2023
a(g713
I1
tp2024
a(g912
I1
tp2025
a(g479
I1
tp2026
a(g704
I1
tp2027
a(g558
I1
tp2028
a(g500
I1
tp2029
a(g224
I1
tp2030
a(g910
I1
tp2031
a(g974
I1
tp2032
a(g972
I1
tp2033
a(g91
I1
tp2034
a(g952
I1
tp2035
a(g970
I1
tp2036
a(g497
I1
tp2037
a(g968
I1
tp2038
a(g596
I1
tp2039
a(g1039
I1
tp2040
a(g736
I1
tp2041
a(g576
I1
tp2042
a(g371
I1
tp2043
a(g306
I1
tp2044
a(g798
I1
tp2045
a(g412
I1
tp2046
a(g171
I1
tp2047
a(g560
I1
tp2048
a(g196
I1
tp2049
a(g200
I1
tp2050
a(g308
I1
tp2051
a(g559
I1
tp2052
a(g367
I1
tp2053
a(g342
I1
tp2054
a(g346
I1
tp2055
a(g542
I1
tp2056
a(g604
I1
tp2057
a(g1077
I1
tp2058
a(g316
I1
tp2059
a(g887
I1
tp2060
a(g540
I1
tp2061
a(g662
I1
tp2062
a(g750
I1
tp2063
a(g92
I1
tp2064
a(g1046
I1
tp2065
a(g782
I1
tp2066
a(g377
I1
tp2067
a(g828
I1
tp2068
a(g765
I1
tp2069
a(g265
I1
tp2070
a(g262
I1
tp2071
a(g769
I1
tp2072
a(g269
I1
tp2073
a(g278
I1
tp2074
a(g1048
I1
tp2075
a(g723
I1
tp2076
a(g335
I1
tp2077
a(g267
I1
tp2078
a(g268
I1
tp2079
a(g840
I1
tp2080
a(g733
I1
tp2081
a(g729
I1
tp2082
a(g735
I1
tp2083
a(g237
I1
tp2084
a(g444
I1
tp2085
a(g508
I1
tp2086
a(g848
I1
tp2087
a(g318
I1
tp2088
a(g58
I1
tp2089
a(g240
I1
tp2090
a(g153
I1
tp2091
a(g564
I1
tp2092
a(g579
I1
tp2093
a(g764
I1
tp2094
a(g563
I1
tp2095
a(g1036
I1
tp2096
a(g52
I1
tp2097
a(g1040
I1
tp2098
a(g275
I1
tp2099
a(g173
I1
tp2100
a(g368
I1
tp2101
a(g614
I1
tp2102
a(g854
I1
tp2103
a(g799
I1
tp2104
a(g1034
I1
tp2105
a(g253
I1
tp2106
a(g496
I1
tp2107
a(g583
I1
tp2108
a(g250
I1
tp2109
a(g936
I1
tp2110
a(g568
I1
tp2111
a(g204
I1
tp2112
a(g602
I1
tp2113
a(g857
I1
tp2114
a(g592
I1
tp2115
a(g908
I1
tp2116
a(g35
I1
tp2117
a(g67
I1
tp2118
a(g30
I1
tp2119
a(g997
I1
tp2120
a(g937
I1
tp2121
a(g893
I1
tp2122
a(g803
I1
tp2123
a(g851
I1
tp2124
a(g454
I1
tp2125
a(g219
I1
tp2126
a(g670
I1
tp2127
a(g755
I1
tp2128
a(g104
I1
tp2129
a(g322
I1
tp2130
a(g487
I1
tp2131
a(g667
I1
tp2132
a(g925
I1
tp2133
a(g429
I1
tp2134
a(g663
I1
tp2135
a(g932
I1
tp2136
a(g930
I1
tp2137
a(g717
I1
tp2138
a(g547
I1
tp2139
a(g135
I1
tp2140
a(g162
I1
tp2141
a(g258
I1
tp2142
a(g536
I1
tp2143
a(g432
I1
tp2144
a(g375
I1
tp2145
a(g374
I1
tp2146
a(g247
I1
tp2147
a(g982
I1
tp2148
a(g677
I1
tp2149
a(g831
I1
tp2150
a(g946
I1
tp2151
a(g507
I1
tp2152
a(g150
I1
tp2153
a(g660
I1
tp2154
a(g753
I1
tp2155
a(g575
I1
tp2156
a(g1055
I1
tp2157
a(g99
I1
tp2158
a(g726
I1
tp2159
a(g1010
I1
tp2160
a(g239
I1
tp2161
a(g98
I1
tp2162
a(g1103
I1
tp2163
a(g366
I1
tp2164
a(g16
I1
tp2165
a(g76
I1
tp2166
a(g310
I1
tp2167
a(g83
I1
tp2168
a(g127
I1
tp2169
a(g327
I1
tp2170
a(g933
I1
tp2171
a(g132
I1
tp2172
a(g1097
I1
tp2173
a(g528
I1
tp2174
a(g526
I1
tp2175
a(g524
I1
tp2176
a(g644
I1
tp2177
a(g1021
I1
tp2178
a(g1017
I1
tp2179
a(g483
I1
tp2180
a(g819
I1
tp2181
a(g96
I1
tp2182
a(g108
I1
tp2183
a(g762
I1
tp2184
a(g730
I1
tp2185
a(g701
I1
tp2186
a(g64
I1
tp2187
a(g498
I1
tp2188
a(g473
I1
tp2189
a(g504
I1
tp2190
a(g923
I1
tp2191
a(g673
I1
tp2192
a(g588
I1
tp2193
a(g145
I1
tp2194
a(g710
I1
tp2195
a(g20
I1
tp2196
a(g1074
I1
tp2197
a(g773
I1
tp2198
a(g959
I1
tp2199
a(g284
I1
tp2200
a(g804
I1
tp2201
a(g259
I1
tp2202
a(g800
I1
tp2203
a(g801
I1
tp2204
a(g802
I1
tp2205
a(g834
I1
tp2206
a(g1026
I1
tp2207
a(g914
I1
tp2208
a(g321
I1
tp2209
a(g995
I1
tp2210
a(g832
I1
tp2211
a(g738
I1
tp2212
a(g844
I1
tp2213
a(g332
I1
tp2214
a(g453
I1
tp2215
a(g206
I1
tp2216
a(g938
I1
tp2217
a(g611
I1
tp2218
a(g630
I1
tp2219
a(g587
I1
tp2220
a(g1098
I1
tp2221
a(g921
I1
tp2222
a(g518
I1
tp2223
a(g1069
I1
tp2224
a(g810
I1
tp2225
a(g918
I1
tp2226
a(g1096
I1
tp2227
a(g243
I1
tp2228
a(g176
I1
tp2229
a(g1028
I1
tp2230
a(g279
I1
tp2231
a(g740
I1
tp2232
a(g241
I1
tp2233
a(g260
I1
tp2234
a(g382
I1
tp2235
a(g629
I1
tp2236
a(g839
I1
tp2237
a(g751
I1
tp2238
a(g742
I1
tp2239
asS'_Nr_cache'
p2240
Nsbs.